; Function Attrs: mustprogress nounwind uwtable
define hidden void @_ZN16G1ConcurrentMark12clear_bitmapEP13WorkerThreads(ptr noundef nonnull align 8 dereferenceable(1849) %0, ptr noundef nonnull %1) local_unnamed_addr #0 align 2 {
  %3 = getelementptr inbounds i8, ptr %1, i64 28
  %4 = load i32, ptr %3, align 4
  %5 = getelementptr inbounds i8, ptr %1, i64 32
  %6 = load i32, ptr %5, align 8
  %7 = tail call noundef i32 @_ZN13WorkerThreads18set_active_workersEj(ptr noundef nonnull align 8 dereferenceable(120) %1, i32 noundef %4) #22
  tail call void @_ZN16G1ConcurrentMark12clear_bitmapEP13WorkerThreadsb(ptr noundef nonnull align 8 dereferenceable(1849) %0, ptr noundef nonnull %1, i1 noundef zeroext false)
  %8 = tail call noundef i32 @_ZN13WorkerThreads18set_active_workersEj(ptr noundef nonnull align 8 dereferenceable(120) %1, i32 noundef %6) #22
  ret void
}